; Function Attrs: mustprogress nounwind uwtable
define dso_local void @_ZN4Plan5ResetEv(ptr noundef nonnull align 8 dereferenceable(120) initializes((112, 120)) %0) local_unnamed_addr #1 align 2 personality ptr @__gxx_personality_v0 {
  %2 = getelementptr inbounds nuw i8, ptr %0, i64 112
  store i32 0, ptr %2, align 8, !tbaa !39
  %3 = getelementptr inbounds nuw i8, ptr %0, i64 116
  store i32 0, ptr %3, align 4, !tbaa !40
  %4 = getelementptr inbounds nuw i8, ptr %0, i64 48
  %5 = load ptr, ptr %4, align 8, !tbaa !41
  %6 = getelementptr inbounds nuw i8, ptr %0, i64 56
  %7 = load ptr, ptr %6, align 8, !tbaa !42
  %.not.i.i.i = icmp eq ptr %7, %5
  br i1 %.not.i.i.i, label %_ZN17EdgePriorityQueue5clearEv.exit, label %8

8:                                                ; preds = %1
  store ptr %5, ptr %6, align 8, !tbaa !42
  br label %_ZN17EdgePriorityQueue5clearEv.exit

_ZN17EdgePriorityQueue5clearEv.exit:              ; preds = %1, %8
  %9 = getelementptr inbounds nuw i8, ptr %0, i64 16
  %10 = load ptr, ptr %9, align 8, !tbaa !13
  invoke void @_ZNSt8_Rb_treeIP4EdgeSt4pairIKS1_N4Plan4WantEESt10_Select1stIS6_ESt4lessIS1_ESaIS6_EE8_M_eraseEPSt13_Rb_tree_nodeIS6_E(ptr noundef nonnull align 8 dereferenceable(48) %0, ptr noundef %10)
          to label %_ZNSt3mapIP4EdgeN4Plan4WantESt4lessIS1_ESaISt4pairIKS1_S3_EEE5clearEv.exit unwind label %11

11:                                               ; preds = %_ZN17EdgePriorityQueue5clearEv.exit
  %12 = landingpad { ptr, i32 }
          catch ptr null
  %13 = extractvalue { ptr, i32 } %12, 0
  tail call void @__clang_call_terminate(ptr %13) #25
  unreachable

_ZNSt3mapIP4EdgeN4Plan4WantESt4lessIS1_ESaISt4pairIKS1_S3_EEE5clearEv.exit: ; preds = %_ZN17EdgePriorityQueue5clearEv.exit
  %14 = getelementptr inbounds nuw i8, ptr %0, i64 8
  store ptr null, ptr %9, align 8, !tbaa !13
  %15 = getelementptr inbounds nuw i8, ptr %0, i64 24
  store ptr %14, ptr %15, align 8, !tbaa !14
  %16 = getelementptr inbounds nuw i8, ptr %0, i64 32
  store ptr %14, ptr %16, align 8, !tbaa !15
  %17 = getelementptr inbounds nuw i8, ptr %0, i64 40
  store i64 0, ptr %17, align 8, !tbaa !43
  ret void
}